target datalayout = "e-m:e-p270:32:32-p271:32:32-p272:64:64-i64:64-i128:128-f80:128-n8:16:32:64-S128"
target triple = "x86_64-pc-linux-gnu"

%struct._object = type { %union.anon.41, ptr }
%union.anon.41 = type { i64 }
%struct.PyVarObject = type { %struct._object, i64 }
%struct.PyCodeObject = type { %struct.PyVarObject, ptr, ptr, ptr, i32, i32, i32, i32, i32, i32, i32, i32, i32, i32, i32, i32, ptr, ptr, ptr, ptr, ptr, ptr, ptr, ptr, ptr, i64, ptr, i64, i32, ptr, [1 x i8] }

@.str.4 = private unnamed_addr constant [1 x i8] zeroinitializer, align 1
@.str.5 = private unnamed_addr constant [10 x i8] c"py::%s:%s\00", align 1

; Function Attrs: nounwind uwtable
define internal void @perf_map_write_entry(ptr noundef %0, ptr noundef %1, i32 noundef %2, ptr noundef %3) #0 {
  %5 = alloca ptr, align 8
  %6 = alloca ptr, align 8
  %7 = alloca i32, align 4
  %8 = alloca ptr, align 8
  %9 = alloca ptr, align 8
  %10 = alloca ptr, align 8
  %11 = alloca i64, align 8
  %12 = alloca ptr, align 8
  %13 = alloca i32, align 4
  store ptr %0, ptr %5, align 8, !tbaa !176
  store ptr %1, ptr %6, align 8, !tbaa !176
  store i32 %2, ptr %7, align 4, !tbaa !177
  store ptr %3, ptr %8, align 8, !tbaa !178
  call void @llvm.lifetime.start.p0(i64 8, ptr %9) #7
  store ptr @.str.4, ptr %9, align 8, !tbaa !180
  %14 = load ptr, ptr %8, align 8, !tbaa !178
  %15 = getelementptr inbounds nuw %struct.PyCodeObject, ptr %14, i32 0, i32 20
  %16 = load ptr, ptr %15, align 8, !tbaa !181
  %17 = icmp ne ptr %16, null
  br i1 %17, label %18, label %23

18:                                               ; preds = %4
  %19 = load ptr, ptr %8, align 8, !tbaa !178
  %20 = getelementptr inbounds nuw %struct.PyCodeObject, ptr %19, i32 0, i32 20
  %21 = load ptr, ptr %20, align 8, !tbaa !181
  %22 = call ptr @PyUnicode_AsUTF8(ptr noundef %21)
  store ptr %22, ptr %9, align 8, !tbaa !180
  br label %23

23:                                               ; preds = %18, %4
  call void @llvm.lifetime.start.p0(i64 8, ptr %10) #7
  store ptr @.str.4, ptr %10, align 8, !tbaa !180
  %24 = load ptr, ptr %8, align 8, !tbaa !178
  %25 = getelementptr inbounds nuw %struct.PyCodeObject, ptr %24, i32 0, i32 18
  %26 = load ptr, ptr %25, align 8, !tbaa !183
  %27 = icmp ne ptr %26, null
  br i1 %27, label %28, label %33

28:                                               ; preds = %23
  %29 = load ptr, ptr %8, align 8, !tbaa !178
  %30 = getelementptr inbounds nuw %struct.PyCodeObject, ptr %29, i32 0, i32 18
  %31 = load ptr, ptr %30, align 8, !tbaa !183
  %32 = call ptr @PyUnicode_AsUTF8(ptr noundef %31)
  store ptr %32, ptr %10, align 8, !tbaa !180
  br label %33

33:                                               ; preds = %28, %23
  call void @llvm.lifetime.start.p0(i64 8, ptr %11) #7
  %34 = load ptr, ptr %9, align 8, !tbaa !180
  %35 = load ptr, ptr %10, align 8, !tbaa !180
  %36 = call i32 (ptr, i64, ptr, ...) @snprintf(ptr noundef null, i64 noundef 0, ptr noundef @.str.5, ptr noundef %34, ptr noundef %35) #7
  %37 = add i32 %36, 1
  %38 = sext i32 %37 to i64
  store i64 %38, ptr %11, align 8, !tbaa !184
  call void @llvm.lifetime.start.p0(i64 8, ptr %12) #7
  %39 = load i64, ptr %11, align 8, !tbaa !184
  %40 = call ptr @PyMem_RawMalloc(i64 noundef %39)
  store ptr %40, ptr %12, align 8, !tbaa !180
  %41 = load ptr, ptr %12, align 8, !tbaa !180
  %42 = icmp eq ptr %41, null
  br i1 %42, label %43, label %44

43:                                               ; preds = %33
  store i32 1, ptr %13, align 4
  br label %55

44:                                               ; preds = %33
  %45 = load ptr, ptr %12, align 8, !tbaa !180
  %46 = load i64, ptr %11, align 8, !tbaa !184
  %47 = load ptr, ptr %9, align 8, !tbaa !180
  %48 = load ptr, ptr %10, align 8, !tbaa !180
  %49 = call i32 (ptr, i64, ptr, ...) @snprintf(ptr noundef %45, i64 noundef %46, ptr noundef @.str.5, ptr noundef %47, ptr noundef %48) #7
  %50 = load ptr, ptr %6, align 8, !tbaa !176
  %51 = load i32, ptr %7, align 4, !tbaa !177
  %52 = load ptr, ptr %12, align 8, !tbaa !180
  %53 = call i32 @PyUnstable_WritePerfMapEntry(ptr noundef %50, i32 noundef %51, ptr noundef %52)
  %54 = load ptr, ptr %12, align 8, !tbaa !180
  call void @PyMem_RawFree(ptr noundef %54)
  store i32 0, ptr %13, align 4
  br label %55

55:                                               ; preds = %44, %43
  call void @llvm.lifetime.end.p0(i64 8, ptr %12) #7
  call void @llvm.lifetime.end.p0(i64 8, ptr %11) #7
  call void @llvm.lifetime.end.p0(i64 8, ptr %10) #7
  call void @llvm.lifetime.end.p0(i64 8, ptr %9) #7
  %56 = load i32, ptr %13, align 4
  switch i32 %56, label %58 [
    i32 0, label %57
    i32 1, label %57
  ]

57:                                               ; preds = %55, %55
  ret void

58:                                               ; preds = %55
  unreachable
}