; Function Attrs: nounwind uwtable
define internal void @perf_map_write_entry(ptr readnone captures(none) %0, ptr noundef %1, i32 noundef %2, ptr noundef readonly captures(none) %3) #0 {
  %5 = getelementptr inbounds nuw i8, ptr %3, i64 128
  %6 = load ptr, ptr %5, align 8, !tbaa !176
  %.not = icmp eq ptr %6, null
  br i1 %.not, label %9, label %7

7:                                                ; preds = %4
  %8 = tail call ptr @PyUnicode_AsUTF8(ptr noundef nonnull %6) #10
  br label %9

9:                                                ; preds = %7, %4
  %.0 = phi ptr [ %8, %7 ], [ @.str.4, %4 ]
  %10 = getelementptr inbounds nuw i8, ptr %3, i64 112
  %11 = load ptr, ptr %10, align 8, !tbaa !178
  %.not19 = icmp eq ptr %11, null
  br i1 %.not19, label %14, label %12

12:                                               ; preds = %9
  %13 = tail call ptr @PyUnicode_AsUTF8(ptr noundef nonnull %11) #10
  br label %14

14:                                               ; preds = %12, %9
  %.015 = phi ptr [ %13, %12 ], [ @.str.4, %9 ]
  %15 = tail call i32 (ptr, i64, ptr, ...) @snprintf(ptr noundef null, i64 noundef 0, ptr noundef nonnull @.str.5, ptr noundef %.0, ptr noundef %.015) #10
  %16 = add i32 %15, 1
  %17 = sext i32 %16 to i64
  %18 = tail call ptr @PyMem_RawMalloc(i64 noundef %17) #10
  %19 = icmp eq ptr %18, null
  br i1 %19, label %23, label %20

20:                                               ; preds = %14
  %21 = tail call i32 (ptr, i64, ptr, ...) @snprintf(ptr noundef nonnull %18, i64 noundef %17, ptr noundef nonnull @.str.5, ptr noundef %.0, ptr noundef %.015) #10
  %22 = tail call i32 @PyUnstable_WritePerfMapEntry(ptr noundef %1, i32 noundef %2, ptr noundef nonnull %18) #10
  tail call void @PyMem_RawFree(ptr noundef nonnull %18) #10
  br label %23

23:                                               ; preds = %14, %20
  ret void
}